target datalayout = "e-m:e-p270:32:32-p271:32:32-p272:64:64-i64:64-i128:128-f80:128-n8:16:32:64-S128"
target triple = "x86_64-pc-linux-gnu"

%"class.lean::object_ref" = type { ptr }
%"class.lean::nat" = type { %"class.lean::object_ref" }

; Function Attrs: inlinehint mustprogress uwtable
define internal noundef ptr @_ZL17lean_usize_to_natm(i64 noundef %0) #4 {
  %2 = alloca ptr, align 8
  %3 = alloca i64, align 8
  store i64 %0, ptr %3, align 8, !tbaa !105
  %4 = load i64, ptr %3, align 8, !tbaa !105
  %5 = icmp ule i64 %4, 9223372036854775807
  %6 = zext i1 %5 to i64
  %7 = call i64 @llvm.expect.i64(i64 %6, i64 1)
  %8 = icmp ne i64 %7, 0
  br i1 %8, label %9, label %12

9:                                                ; preds = %1
  %10 = load i64, ptr %3, align 8, !tbaa !105
  %11 = call noundef ptr @_ZL8lean_boxm(i64 noundef %10)
  store ptr %11, ptr %2, align 8
  br label %15

12:                                               ; preds = %1
  %13 = load i64, ptr %3, align 8, !tbaa !105
  %14 = call ptr @lean_big_usize_to_nat(i64 noundef %13)
  store ptr %14, ptr %2, align 8
  br label %15

15:                                               ; preds = %12, %9
  %16 = load ptr, ptr %2, align 8
  ret ptr %16
}

; Function Attrs: inlinehint mustprogress nounwind uwtable
define internal noundef ptr @_ZL8lean_boxm(i64 noundef %0) #6 {
  %2 = alloca i64, align 8
  store i64 %0, ptr %2, align 8, !tbaa !105
  %3 = load i64, ptr %2, align 8, !tbaa !105
  %4 = shl i64 %3, 1
  %5 = or i64 %4, 1
  %6 = inttoptr i64 %5 to ptr
  ret ptr %6
}

; Function Attrs: inlinehint mustprogress uwtable
define internal noundef ptr @_ZL20lean_unsigned_to_natj(i32 noundef %0) #4 {
  %2 = alloca i32, align 4
  store i32 %0, ptr %2, align 4, !tbaa !3
  %3 = load i32, ptr %2, align 4, !tbaa !3
  %4 = zext i32 %3 to i64
  %5 = call noundef ptr @_ZL17lean_usize_to_natm(i64 noundef %4)
  ret ptr %5
}

; Function Attrs: inlinehint mustprogress uwtable
define linkonce_odr hidden noundef ptr @_ZN4lean3boxEm(i64 noundef %0) #4 comdat {
  %2 = alloca i64, align 8
  store i64 %0, ptr %2, align 8, !tbaa !105
  %3 = load i64, ptr %2, align 8, !tbaa !105
  %4 = call noundef ptr @_ZL8lean_boxm(i64 noundef %3)
  ret ptr %4
}

; Function Attrs: mustprogress nounwind uwtable
define linkonce_odr hidden void @_ZN4lean10object_refC2EP11lean_object(ptr noundef nonnull align 8 dereferenceable(8) %0, ptr noundef %1) unnamed_addr #5 comdat align 2 {
  %3 = alloca ptr, align 8
  %4 = alloca ptr, align 8
  store ptr %0, ptr %3, align 8, !tbaa !11
  store ptr %1, ptr %4, align 8, !tbaa !10
  %5 = load ptr, ptr %3, align 8
  %6 = getelementptr inbounds nuw %"class.lean::object_ref", ptr %5, i32 0, i32 0
  %7 = load ptr, ptr %4, align 8, !tbaa !10
  store ptr %7, ptr %6, align 8, !tbaa !13
  ret void
}

; Function Attrs: inlinehint mustprogress uwtable
define linkonce_odr hidden noundef ptr @_ZN4lean10mk_nat_objEj(i32 noundef %0) #4 comdat {
  %2 = alloca i32, align 4
  store i32 %0, ptr %2, align 4, !tbaa !3
  %3 = load i32, ptr %2, align 4, !tbaa !3
  %4 = call noundef ptr @_ZL20lean_unsigned_to_natj(i32 noundef %3)
  ret ptr %4
}

; Function Attrs: mustprogress uwtable
define linkonce_odr hidden void @_ZN4lean10object_refC2EOS0_(ptr noundef nonnull align 8 dereferenceable(8) %0, ptr noundef nonnull align 8 dereferenceable(8) %1) unnamed_addr #0 comdat align 2 {
  %3 = alloca ptr, align 8
  %4 = alloca ptr, align 8
  store ptr %0, ptr %3, align 8, !tbaa !11
  store ptr %1, ptr %4, align 8, !tbaa !11
  %5 = load ptr, ptr %3, align 8
  %6 = getelementptr inbounds nuw %"class.lean::object_ref", ptr %5, i32 0, i32 0
  %7 = load ptr, ptr %4, align 8, !tbaa !11
  %8 = getelementptr inbounds nuw %"class.lean::object_ref", ptr %7, i32 0, i32 0
  %9 = load ptr, ptr %8, align 8, !tbaa !13
  store ptr %9, ptr %6, align 8, !tbaa !13
  %10 = call noundef ptr @_ZN4lean3boxEm(i64 noundef 0)
  %11 = load ptr, ptr %4, align 8, !tbaa !11
  %12 = getelementptr inbounds nuw %"class.lean::object_ref", ptr %11, i32 0, i32 0
  store ptr %10, ptr %12, align 8, !tbaa !13
  ret void
}

; Function Attrs: mustprogress uwtable
define linkonce_odr hidden void @_ZN4lean3natC2Ej(ptr noundef nonnull align 8 dereferenceable(8) %0, i32 noundef %1) unnamed_addr #0 comdat align 2 {
  %3 = alloca ptr, align 8
  %4 = alloca i32, align 4
  store ptr %0, ptr %3, align 8, !tbaa !47
  store i32 %1, ptr %4, align 4, !tbaa !3
  %5 = load ptr, ptr %3, align 8
  %6 = load i32, ptr %4, align 4, !tbaa !3
  %7 = call noundef ptr @_ZN4lean10mk_nat_objEj(i32 noundef %6)
  call void @_ZN4lean10object_refC2EP11lean_object(ptr noundef nonnull align 8 dereferenceable(8) %5, ptr noundef %7)
  ret void
}

; Function Attrs: mustprogress uwtable
define hidden void @_ZN4lean13recursor_ruleC2ERKNS_4nameEjRKNS_4exprE(ptr noundef nonnull align 8 dereferenceable(8) %0, ptr noundef nonnull align 8 dereferenceable(8) %1, i32 noundef %2, ptr noundef nonnull align 8 dereferenceable(8) %3) unnamed_addr #0 align 2 personality ptr @__gxx_personality_v0 {
  %5 = alloca ptr, align 8
  %6 = alloca ptr, align 8
  %7 = alloca i32, align 4
  %8 = alloca ptr, align 8
  %9 = alloca %"class.lean::object_ref", align 8
  %10 = alloca %"class.lean::nat", align 8
  %11 = alloca ptr, align 8
  %12 = alloca i32, align 4
  store ptr %0, ptr %5, align 8, !tbaa !45
  store ptr %1, ptr %6, align 8, !tbaa !21
  store i32 %2, ptr %7, align 4, !tbaa !3
  store ptr %3, ptr %8, align 8, !tbaa !25
  %13 = load ptr, ptr %5, align 8
  call void @llvm.lifetime.start.p0(i64 8, ptr %9) #16
  %14 = load ptr, ptr %6, align 8, !tbaa !21
  call void @llvm.lifetime.start.p0(i64 8, ptr %10) #16
  %15 = load i32, ptr %7, align 4, !tbaa !3
  call void @_ZN4lean3natC2Ej(ptr noundef nonnull align 8 dereferenceable(8) %10, i32 noundef %15)
  %16 = load ptr, ptr %8, align 8, !tbaa !25
  invoke void @_ZN4lean8mk_cnstrEjRKNS_10object_refES2_S2_j(ptr dead_on_unwind writable sret(%"class.lean::object_ref") align 8 %9, i32 noundef 0, ptr noundef nonnull align 8 dereferenceable(8) %14, ptr noundef nonnull align 8 dereferenceable(8) %10, ptr noundef nonnull align 8 dereferenceable(8) %16, i32 noundef 0)
          to label %17 unwind label %19

17:                                               ; preds = %4
  invoke void @_ZN4lean10object_refC2EOS0_(ptr noundef nonnull align 8 dereferenceable(8) %13, ptr noundef nonnull align 8 dereferenceable(8) %9)
          to label %18 unwind label %23

18:                                               ; preds = %17
  call void @_ZN4lean10object_refD2Ev(ptr noundef nonnull align 8 dereferenceable(8) %9) #16
  call void @_ZN4lean10object_refD2Ev(ptr noundef nonnull align 8 dereferenceable(8) %10) #16
  call void @llvm.lifetime.end.p0(i64 8, ptr %10) #16
  call void @llvm.lifetime.end.p0(i64 8, ptr %9) #16
  ret void

19:                                               ; preds = %4
  %20 = landingpad { ptr, i32 }
          cleanup
  %21 = extractvalue { ptr, i32 } %20, 0
  store ptr %21, ptr %11, align 8
  %22 = extractvalue { ptr, i32 } %20, 1
  store i32 %22, ptr %12, align 4
  br label %27

23:                                               ; preds = %17
  %24 = landingpad { ptr, i32 }
          cleanup
  %25 = extractvalue { ptr, i32 } %24, 0
  store ptr %25, ptr %11, align 8
  %26 = extractvalue { ptr, i32 } %24, 1
  store i32 %26, ptr %12, align 4
  call void @_ZN4lean10object_refD2Ev(ptr noundef nonnull align 8 dereferenceable(8) %9) #16
  br label %27

27:                                               ; preds = %23, %19
  call void @_ZN4lean10object_refD2Ev(ptr noundef nonnull align 8 dereferenceable(8) %10) #16
  call void @llvm.lifetime.end.p0(i64 8, ptr %10) #16
  call void @llvm.lifetime.end.p0(i64 8, ptr %9) #16
  br label %28

28:                                               ; preds = %27
  %29 = load ptr, ptr %11, align 8
  %30 = load i32, ptr %12, align 4
  %31 = insertvalue { ptr, i32 } poison, ptr %29, 0
  %32 = insertvalue { ptr, i32 } %31, i32 %30, 1
  resume { ptr, i32 } %32
}