; Function Attrs: mustprogress uwtable
define hidden void @_ZN4lean13recursor_ruleC2ERKNS_4nameEjRKNS_4exprE(ptr noundef nonnull writeonly align 8 captures(none) dereferenceable(8) %0, ptr noundef nonnull align 8 dereferenceable(8) %1, i32 noundef %2, ptr noundef nonnull align 8 dereferenceable(8) %3) unnamed_addr #0 align 2 personality ptr @__gxx_personality_v0 {
  %5 = alloca %"class.lean::object_ref", align 8
  %6 = alloca %"class.lean::nat", align 8
  call void @llvm.lifetime.start.p0(i64 8, ptr nonnull %5) #16
  call void @llvm.lifetime.start.p0(i64 8, ptr nonnull %6) #16
  %7 = zext i32 %2 to i64
  %8 = shl nuw nsw i64 %7, 1
  %9 = or disjoint i64 %8, 1
  %10 = inttoptr i64 %9 to ptr
  store ptr %10, ptr %6, align 8, !tbaa !3
  invoke void @_ZN4lean8mk_cnstrEjRKNS_10object_refES2_S2_j(ptr dead_on_unwind nonnull writable sret(%"class.lean::object_ref") align 8 %5, i32 noundef 0, ptr noundef nonnull align 8 dereferenceable(8) %1, ptr noundef nonnull align 8 dereferenceable(8) %6, ptr noundef nonnull align 8 dereferenceable(8) %3, i32 noundef 0)
          to label %_ZN4lean10object_refD2Ev.exit unwind label %25

_ZN4lean10object_refD2Ev.exit:                    ; preds = %4
  %11 = load ptr, ptr %5, align 8, !tbaa !3
  store ptr %11, ptr %0, align 8, !tbaa !3
  store ptr inttoptr (i64 1 to ptr), ptr %5, align 8, !tbaa !3
  %12 = load ptr, ptr %6, align 8, !tbaa !3
  %13 = ptrtoint ptr %12 to i64
  %14 = and i64 %13, 1
  %.not.i.i7 = icmp eq i64 %14, 0
  br i1 %.not.i.i7, label %15, label %_ZN4lean10object_refD2Ev.exit9

15:                                               ; preds = %_ZN4lean10object_refD2Ev.exit
  %16 = load i32, ptr %12, align 4, !tbaa !8
  %17 = icmp sgt i32 %16, 1
  br i1 %17, label %18, label %20, !prof !11

18:                                               ; preds = %15
  %19 = add nsw i32 %16, -1
  store i32 %19, ptr %12, align 4, !tbaa !8
  br label %_ZN4lean10object_refD2Ev.exit9

20:                                               ; preds = %15
  %.not.i.i.i8 = icmp eq i32 %16, 0
  br i1 %.not.i.i.i8, label %_ZN4lean10object_refD2Ev.exit9, label %21

21:                                               ; preds = %20
  invoke void @lean_dec_ref_cold(ptr noundef nonnull %12)
          to label %_ZN4lean10object_refD2Ev.exit9 unwind label %22

22:                                               ; preds = %21
  %23 = landingpad { ptr, i32 }
          catch ptr null
  %24 = extractvalue { ptr, i32 } %23, 0
  call void @__clang_call_terminate(ptr %24) #18
  unreachable

_ZN4lean10object_refD2Ev.exit9:                   ; preds = %_ZN4lean10object_refD2Ev.exit, %18, %20, %21
  call void @llvm.lifetime.end.p0(i64 8, ptr nonnull %6) #16
  call void @llvm.lifetime.end.p0(i64 8, ptr nonnull %5) #16
  ret void

25:                                               ; preds = %4
  %26 = landingpad { ptr, i32 }
          cleanup
  call void @_ZN4lean10object_refD2Ev(ptr noundef nonnull align 8 dereferenceable(8) %6) #16
  call void @llvm.lifetime.end.p0(i64 8, ptr nonnull %6) #16
  call void @llvm.lifetime.end.p0(i64 8, ptr nonnull %5) #16
  resume { ptr, i32 } %26
}